target datalayout = "e-m:e-p270:32:32-p271:32:32-p272:64:64-i64:64-i128:128-f80:128-n8:16:32:64-S128"
target triple = "x86_64-pc-linux-gnu"

%struct.AVCodecParserContext = type { ptr, ptr, i64, i64, i64, i32, i32, i64, i64, i64, i64, i32, i32, [4 x i64], [4 x i64], [4 x i64], i32, i64, [4 x i64], i32, i32, i32, i32, [4 x i64], i64, i64, i32, i32, i32, i32, i32, i32, i32, i32, i32 }
%struct.AV1ParseContext = type { ptr, %struct.CodedBitstreamFragment, i32 }
%struct.CodedBitstreamFragment = type { ptr, i64, i64, ptr, i32, i32, ptr }
%struct.CodedBitstreamContext = type { ptr, ptr, ptr, ptr, i32, i32, i32, ptr, ptr, ptr, ptr, i64 }

@decompose_unit_types = internal constant [5 x i32] [i32 2, i32 1, i32 3, i32 4, i32 6], align 16

; Function Attrs: cold nounwind optsize uwtable
define internal i32 @av1_parser_init(ptr noundef %0) #0 {
  %2 = alloca i32, align 4
  %3 = alloca ptr, align 8
  %4 = alloca ptr, align 8
  %5 = alloca i32, align 4
  %6 = alloca i32, align 4
  store ptr %0, ptr %3, align 8, !tbaa !4
  call void @llvm.lifetime.start.p0(i64 8, ptr %4) #5
  %7 = load ptr, ptr %3, align 8, !tbaa !4
  %8 = getelementptr inbounds nuw %struct.AVCodecParserContext, ptr %7, i32 0, i32 0
  %9 = load ptr, ptr %8, align 8, !tbaa !9
  store ptr %9, ptr %4, align 8, !tbaa !14
  call void @llvm.lifetime.start.p0(i64 4, ptr %5) #5
  %10 = load ptr, ptr %4, align 8, !tbaa !14
  %11 = getelementptr inbounds nuw %struct.AV1ParseContext, ptr %10, i32 0, i32 0
  %12 = call i32 @ff_cbs_init(ptr noundef %11, i32 noundef 225, ptr noundef null)
  store i32 %12, ptr %5, align 4, !tbaa !16
  %13 = load i32, ptr %5, align 4, !tbaa !16
  %14 = icmp slt i32 %13, 0
  br i1 %14, label %15, label %17

15:                                               ; preds = %1
  %16 = load i32, ptr %5, align 4, !tbaa !16
  store i32 %16, ptr %2, align 4
  store i32 1, ptr %6, align 4
  br label %26

17:                                               ; preds = %1
  %18 = load ptr, ptr %4, align 8, !tbaa !14
  %19 = getelementptr inbounds nuw %struct.AV1ParseContext, ptr %18, i32 0, i32 0
  %20 = load ptr, ptr %19, align 8, !tbaa !17
  %21 = getelementptr inbounds nuw %struct.CodedBitstreamContext, ptr %20, i32 0, i32 3
  store ptr @decompose_unit_types, ptr %21, align 8, !tbaa !24
  %22 = load ptr, ptr %4, align 8, !tbaa !14
  %23 = getelementptr inbounds nuw %struct.AV1ParseContext, ptr %22, i32 0, i32 0
  %24 = load ptr, ptr %23, align 8, !tbaa !17
  %25 = getelementptr inbounds nuw %struct.CodedBitstreamContext, ptr %24, i32 0, i32 4
  store i32 5, ptr %25, align 8, !tbaa !28
  store i32 0, ptr %2, align 4
  store i32 1, ptr %6, align 4
  br label %26

26:                                               ; preds = %17, %15
  call void @llvm.lifetime.end.p0(i64 4, ptr %5) #5
  call void @llvm.lifetime.end.p0(i64 8, ptr %4) #5
  %27 = load i32, ptr %2, align 4
  ret i32 %27
}